; Function Attrs: nounwind uwtable
define ptr @X509V3_EXT_get(ptr noundef %0) local_unnamed_addr #0 {
  %2 = alloca %struct.v3_ext_method, align 8
  %3 = alloca ptr, align 8
  %4 = tail call ptr @X509_EXTENSION_get_object(ptr noundef %0) #7
  %5 = tail call i32 @OBJ_obj2nid(ptr noundef %4) #7
  %6 = icmp eq i32 %5, 0
  br i1 %6, label %20, label %7

7:                                                ; preds = %1
  call void @llvm.lifetime.start.p0(i64 104, ptr nonnull %2) #7
  call void @llvm.lifetime.start.p0(i64 8, ptr nonnull %3) #7
  store ptr %2, ptr %3, align 8, !tbaa !8
  %8 = icmp slt i32 %5, 0
  br i1 %8, label %X509V3_EXT_get_nid.exit, label %9

9:                                                ; preds = %7
  store i32 %5, ptr %2, align 8, !tbaa !10
  %10 = call ptr @OBJ_bsearch_(ptr noundef nonnull %3, ptr noundef nonnull @standard_exts, i32 noundef 73, i32 noundef 8, ptr noundef nonnull @ext_cmp_BSEARCH_CMP_FN) #7
  %.not.i = icmp eq ptr %10, null
  br i1 %.not.i, label %13, label %11

11:                                               ; preds = %9
  %12 = load ptr, ptr %10, align 8, !tbaa !8
  br label %X509V3_EXT_get_nid.exit

13:                                               ; preds = %9
  %14 = load ptr, ptr @ext_list, align 8, !tbaa !3
  %.not8.i = icmp eq ptr %14, null
  br i1 %.not8.i, label %X509V3_EXT_get_nid.exit, label %15

15:                                               ; preds = %13
  call void @OPENSSL_sk_sort(ptr noundef nonnull %14) #7
  %16 = load ptr, ptr @ext_list, align 8, !tbaa !3
  %17 = call i32 @OPENSSL_sk_find(ptr noundef %16, ptr noundef nonnull %2) #7
  %18 = load ptr, ptr @ext_list, align 8, !tbaa !3
  %19 = call ptr @OPENSSL_sk_value(ptr noundef %18, i32 noundef %17) #7
  br label %X509V3_EXT_get_nid.exit

X509V3_EXT_get_nid.exit:                          ; preds = %7, %11, %13, %15
  %.0.i = phi ptr [ %12, %11 ], [ %19, %15 ], [ null, %7 ], [ null, %13 ]
  call void @llvm.lifetime.end.p0(i64 8, ptr nonnull %3) #7
  call void @llvm.lifetime.end.p0(i64 104, ptr nonnull %2) #7
  br label %20

20:                                               ; preds = %1, %X509V3_EXT_get_nid.exit
  %.0 = phi ptr [ %.0.i, %X509V3_EXT_get_nid.exit ], [ null, %1 ]
  ret ptr %.0
}